target datalayout = "e-m:e-p270:32:32-p271:32:32-p272:64:64-i64:64-i128:128-f80:128-n8:16:32:64-S128"
target triple = "x86_64-unknown-linux-gnu"

%"class.net::QuicWallTime" = type { i64 }
%"class.base::BasicStringPiece" = type { ptr, i64 }
%"struct.std::_Rb_tree_header" = type { %"struct.std::_Rb_tree_node_base", i64 }
%"struct.std::_Rb_tree_node_base" = type { i32, ptr, ptr, ptr }
%"class.std::__cxx11::basic_string" = type { %"struct.std::__cxx11::basic_string<char>::_Alloc_hider", i64, %union.anon }
%"struct.std::__cxx11::basic_string<char>::_Alloc_hider" = type { ptr }
%union.anon = type { i64, [8 x i8] }
%"class.std::vector.45" = type { %"struct.std::_Vector_base.46" }
%"struct.std::_Vector_base.46" = type { %"struct.std::_Vector_base<std::__cxx11::basic_string<char>, std::allocator<std::__cxx11::basic_string<char>>>::_Vector_impl" }
%"struct.std::_Vector_base<std::__cxx11::basic_string<char>, std::allocator<std::__cxx11::basic_string<char>>>::_Vector_impl" = type { %"struct.std::_Vector_base<std::__cxx11::basic_string<char>, std::allocator<std::__cxx11::basic_string<char>>>::_Vector_impl_data" }
%"struct.std::_Vector_base<std::__cxx11::basic_string<char>, std::allocator<std::__cxx11::basic_string<char>>>::_Vector_impl_data" = type { ptr, ptr, ptr }
%"class.net::QuicCryptoServerConfig" = type <{ i8, [7 x i8], i64, %"class.base::Lock", %"class.std::map.21", %class.scoped_refptr, %"class.net::QuicWallTime", %"class.std::unique_ptr.29", %"class.base::Lock", %"class.std::unique_ptr.37", %"class.net::CryptoSecretBoxer", %"class.net::CryptoSecretBoxer", [8 x i8], %"class.base::Lock", %"class.std::unique_ptr.50", %"class.std::unique_ptr.13", %"class.std::unique_ptr.58", i8, [3 x i8], i32, i32, i32, i32, i32, i32, i8, [3 x i8] }>
%"class.std::map.21" = type { %"class.std::_Rb_tree.22" }
%"class.std::_Rb_tree.22" = type { %"struct.std::_Rb_tree<std::__cxx11::basic_string<char>, std::pair<const std::__cxx11::basic_string<char>, scoped_refptr<net::QuicCryptoServerConfig::Config>>, std::_Select1st<std::pair<const std::__cxx11::basic_string<char>, scoped_refptr<net::QuicCryptoServerConfig::Config>>>, std::less<std::__cxx11::basic_string<char>>>::_Rb_tree_impl" }
%"struct.std::_Rb_tree<std::__cxx11::basic_string<char>, std::pair<const std::__cxx11::basic_string<char>, scoped_refptr<net::QuicCryptoServerConfig::Config>>, std::_Select1st<std::pair<const std::__cxx11::basic_string<char>, scoped_refptr<net::QuicCryptoServerConfig::Config>>>, std::less<std::__cxx11::basic_string<char>>>::_Rb_tree_impl" = type { %"struct.std::_Rb_tree_key_compare.26", %"struct.std::_Rb_tree_header" }
%"struct.std::_Rb_tree_key_compare.26" = type { %"struct.std::less.27" }
%"struct.std::less.27" = type { i8 }
%class.scoped_refptr = type { ptr }
%"class.std::unique_ptr.29" = type { %"struct.std::__uniq_ptr_data.30" }
%"struct.std::__uniq_ptr_data.30" = type { %"class.std::__uniq_ptr_impl.31" }
%"class.std::__uniq_ptr_impl.31" = type { %"class.std::tuple.32" }
%"class.std::tuple.32" = type { %"struct.std::_Tuple_impl.33" }
%"struct.std::_Tuple_impl.33" = type { %"struct.std::_Head_base.36" }
%"struct.std::_Head_base.36" = type { ptr }
%"class.std::unique_ptr.37" = type { %"struct.std::__uniq_ptr_data.38" }
%"struct.std::__uniq_ptr_data.38" = type { %"class.std::__uniq_ptr_impl.39" }
%"class.std::__uniq_ptr_impl.39" = type { %"class.std::tuple.40" }
%"class.std::tuple.40" = type { %"struct.std::_Tuple_impl.41" }
%"struct.std::_Tuple_impl.41" = type { %"struct.std::_Head_base.44" }
%"struct.std::_Head_base.44" = type { ptr }
%"class.net::CryptoSecretBoxer" = type { %"class.base::Lock", %"class.std::vector.45" }
%"class.base::Lock" = type { %"class.base::internal::LockImpl" }
%"class.base::internal::LockImpl" = type { %union.pthread_mutex_t }
%union.pthread_mutex_t = type { %struct.__pthread_mutex_s }
%struct.__pthread_mutex_s = type { i32, i32, i32, i32, i32, i16, i16, %struct.__pthread_internal_list }
%struct.__pthread_internal_list = type { ptr, ptr }
%"class.std::unique_ptr.50" = type { %"struct.std::__uniq_ptr_data.51" }
%"struct.std::__uniq_ptr_data.51" = type { %"class.std::__uniq_ptr_impl.52" }
%"class.std::__uniq_ptr_impl.52" = type { %"class.std::tuple.53" }
%"class.std::tuple.53" = type { %"struct.std::_Tuple_impl.54" }
%"struct.std::_Tuple_impl.54" = type { %"struct.std::_Head_base.57" }
%"struct.std::_Head_base.57" = type { ptr }
%"class.std::unique_ptr.13" = type { %"struct.std::__uniq_ptr_data.14" }
%"struct.std::__uniq_ptr_data.14" = type { %"class.std::__uniq_ptr_impl.15" }
%"class.std::__uniq_ptr_impl.15" = type { %"class.std::tuple.16" }
%"class.std::tuple.16" = type { %"struct.std::_Tuple_impl.17" }
%"struct.std::_Tuple_impl.17" = type { %"struct.std::_Head_base.20" }
%"struct.std::_Head_base.20" = type { ptr }
%"class.std::unique_ptr.58" = type { %"struct.std::__uniq_ptr_data.59" }
%"struct.std::__uniq_ptr_data.59" = type { %"class.std::__uniq_ptr_impl.60" }
%"class.std::__uniq_ptr_impl.60" = type { %"class.std::tuple.61" }
%"class.std::tuple.61" = type { %"struct.std::_Tuple_impl.62" }
%"struct.std::_Tuple_impl.62" = type { %"struct.std::_Head_base.65" }
%"struct.std::_Head_base.65" = type { ptr }
%"class.std::unique_ptr.236" = type { %"struct.std::__uniq_ptr_data.237" }
%"struct.std::__uniq_ptr_data.237" = type { %"class.std::__uniq_ptr_impl.238" }
%"class.std::__uniq_ptr_impl.238" = type { %"class.std::tuple.239" }
%"class.std::tuple.239" = type { %"struct.std::_Tuple_impl.240" }
%"struct.std::_Tuple_impl.240" = type { %"struct.std::_Head_base.243" }
%"struct.std::_Head_base.243" = type { ptr }

; Function Attrs: mustprogress nounwind uwtable
define linkonce_odr dso_local noundef nonnull align 8 dereferenceable(8) ptr @_ZNSt10_Head_baseILm0EPN3net44BuildServerConfigUpdateMessageResultCallbackELb0EE7_M_headERKS3_(ptr noundef nonnull align 8 dereferenceable(8) %__b) #3 comdat align 2 {
entry:
  %__b.addr = alloca ptr, align 8
  store ptr %__b, ptr %__b.addr, align 8
  %0 = load ptr, ptr %__b.addr, align 8
  %_M_head_impl = getelementptr inbounds %"struct.std::_Head_base.243", ptr %0, i32 0, i32 0
  ret ptr %_M_head_impl
}

; Function Attrs: mustprogress nounwind uwtable
define linkonce_odr dso_local noundef nonnull align 8 dereferenceable(8) ptr @_ZNSt11_Tuple_implILm0EJPN3net44BuildServerConfigUpdateMessageResultCallbackESt14default_deleteIS1_EEE7_M_headERKS5_(ptr noundef nonnull align 8 dereferenceable(8) %__t) #3 comdat align 2 {
entry:
  %__t.addr = alloca ptr, align 8
  store ptr %__t, ptr %__t.addr, align 8
  %0 = load ptr, ptr %__t.addr, align 8
  %call = call noundef nonnull align 8 dereferenceable(8) ptr @_ZNSt10_Head_baseILm0EPN3net44BuildServerConfigUpdateMessageResultCallbackELb0EE7_M_headERKS3_(ptr noundef nonnull align 8 dereferenceable(8) %0) #14
  ret ptr %call
}

; Function Attrs: mustprogress nounwind uwtable
define linkonce_odr dso_local noundef nonnull align 8 dereferenceable(8) ptr @_ZSt12__get_helperILm0EPN3net44BuildServerConfigUpdateMessageResultCallbackEJSt14default_deleteIS1_EEERKT0_RKSt11_Tuple_implIXT_EJS5_DpT1_EE(ptr noundef nonnull align 8 dereferenceable(8) %__t) #3 comdat {
entry:
  %__t.addr = alloca ptr, align 8
  store ptr %__t, ptr %__t.addr, align 8
  %0 = load ptr, ptr %__t.addr, align 8
  %call = call noundef nonnull align 8 dereferenceable(8) ptr @_ZNSt11_Tuple_implILm0EJPN3net44BuildServerConfigUpdateMessageResultCallbackESt14default_deleteIS1_EEE7_M_headERKS5_(ptr noundef nonnull align 8 dereferenceable(8) %0) #14
  ret ptr %call
}

; Function Attrs: mustprogress nounwind uwtable
define linkonce_odr dso_local noundef nonnull align 8 dereferenceable(8) ptr @_ZSt3getILm0EJPN3net44BuildServerConfigUpdateMessageResultCallbackESt14default_deleteIS1_EEERKNSt13tuple_elementIXT_ESt5tupleIJDpT0_EEE4typeERKS9_(ptr noundef nonnull align 8 dereferenceable(8) %__t) #3 comdat {
entry:
  %__t.addr = alloca ptr, align 8
  store ptr %__t, ptr %__t.addr, align 8
  %0 = load ptr, ptr %__t.addr, align 8
  %call = call noundef nonnull align 8 dereferenceable(8) ptr @_ZSt12__get_helperILm0EPN3net44BuildServerConfigUpdateMessageResultCallbackEJSt14default_deleteIS1_EEERKT0_RKSt11_Tuple_implIXT_EJS5_DpT1_EE(ptr noundef nonnull align 8 dereferenceable(8) %0) #14
  ret ptr %call
}

; Function Attrs: mustprogress nounwind uwtable
define linkonce_odr dso_local noundef ptr @_ZNKSt15__uniq_ptr_implIN3net44BuildServerConfigUpdateMessageResultCallbackESt14default_deleteIS1_EE6_M_ptrEv(ptr noundef nonnull align 8 dereferenceable(8) %this) #3 comdat align 2 {
entry:
  %this.addr = alloca ptr, align 8
  store ptr %this, ptr %this.addr, align 8
  %this1 = load ptr, ptr %this.addr, align 8
  %_M_t = getelementptr inbounds %"class.std::__uniq_ptr_impl.238", ptr %this1, i32 0, i32 0
  %call = call noundef nonnull align 8 dereferenceable(8) ptr @_ZSt3getILm0EJPN3net44BuildServerConfigUpdateMessageResultCallbackESt14default_deleteIS1_EEERKNSt13tuple_elementIXT_ESt5tupleIJDpT0_EEE4typeERKS9_(ptr noundef nonnull align 8 dereferenceable(8) %_M_t) #14
  %0 = load ptr, ptr %call, align 8
  ret ptr %0
}

; Function Attrs: mustprogress nounwind uwtable
define linkonce_odr dso_local noundef ptr @_ZNKSt10unique_ptrIN3net44BuildServerConfigUpdateMessageResultCallbackESt14default_deleteIS1_EE3getEv(ptr noundef nonnull align 8 dereferenceable(8) %this) #3 comdat align 2 {
entry:
  %this.addr = alloca ptr, align 8
  store ptr %this, ptr %this.addr, align 8
  %this1 = load ptr, ptr %this.addr, align 8
  %_M_t = getelementptr inbounds %"class.std::unique_ptr.236", ptr %this1, i32 0, i32 0
  %call = call noundef ptr @_ZNKSt15__uniq_ptr_implIN3net44BuildServerConfigUpdateMessageResultCallbackESt14default_deleteIS1_EE6_M_ptrEv(ptr noundef nonnull align 8 dereferenceable(8) %_M_t) #14
  ret ptr %call
}

; Function Attrs: mustprogress nounwind uwtable
define linkonce_odr dso_local noundef ptr @_ZNKSt10unique_ptrIN3net44BuildServerConfigUpdateMessageResultCallbackESt14default_deleteIS1_EEptEv(ptr noundef nonnull align 8 dereferenceable(8) %this) #3 comdat align 2 {
entry:
  %this.addr = alloca ptr, align 8
  store ptr %this, ptr %this.addr, align 8
  %this1 = load ptr, ptr %this.addr, align 8
  %call = call noundef ptr @_ZNKSt10unique_ptrIN3net44BuildServerConfigUpdateMessageResultCallbackESt14default_deleteIS1_EE3getEv(ptr noundef nonnull align 8 dereferenceable(8) %this1) #14
  ret ptr %call
}

; Function Attrs: mustprogress uwtable
define dso_local void @_ZNK3net22QuicCryptoServerConfig36FinishBuildServerConfigUpdateMessageENS_11QuicVersionEPNS_24QuicCompressedCertsCacheEPKNS_14CommonCertSetsERKNSt7__cxx1112basic_stringIcSt11char_traitsIcESaIcEEESE_bbRK13scoped_refptrINS_11ProofSource5ChainEESE_SE_St10unique_ptrINSG_7DetailsESt14default_deleteISM_EENS_22CryptoHandshakeMessageESL_INS_44BuildServerConfigUpdateMessageResultCallbackESN_ISR_EE(ptr noundef nonnull align 8 dereferenceable(405) %this, i32 noundef %version, ptr noundef %compressed_certs_cache, ptr noundef %common_cert_sets, ptr noundef nonnull align 8 dereferenceable(32) %client_common_set_hashes, ptr noundef nonnull align 8 dereferenceable(32) %client_cached_cert_hashes, i1 noundef zeroext %sct_supported_by_client, i1 noundef zeroext %ok, ptr noundef nonnull align 8 dereferenceable(8) %chain, ptr noundef nonnull align 8 dereferenceable(32) %signature, ptr noundef nonnull align 8 dereferenceable(32) %leaf_cert_sct, ptr noundef %details, ptr noundef %message, ptr noundef %cb) #0 align 2 personality ptr @__gxx_personality_v0 {
entry:
  %this.addr = alloca ptr, align 8
  %version.addr = alloca i32, align 4
  %compressed_certs_cache.addr = alloca ptr, align 8
  %common_cert_sets.addr = alloca ptr, align 8
  %client_common_set_hashes.addr = alloca ptr, align 8
  %client_cached_cert_hashes.addr = alloca ptr, align 8
  %sct_supported_by_client.addr = alloca i8, align 1
  %ok.addr = alloca i8, align 1
  %chain.addr = alloca ptr, align 8
  %signature.addr = alloca ptr, align 8
  %leaf_cert_sct.addr = alloca ptr, align 8
  %details.indirect_addr = alloca ptr, align 8
  %message.indirect_addr = alloca ptr, align 8
  %cb.indirect_addr = alloca ptr, align 8
  %compressed = alloca %"class.std::__cxx11::basic_string", align 8
  %agg.tmp = alloca %"class.base::BasicStringPiece", align 8
  %exn.slot = alloca ptr, align 8
  %ehselector.slot = alloca i32, align 4
  %agg.tmp4 = alloca %"class.base::BasicStringPiece", align 8
  %agg.tmp12 = alloca %"class.base::BasicStringPiece", align 8
  store ptr %this, ptr %this.addr, align 8
  store i32 %version, ptr %version.addr, align 4
  store ptr %compressed_certs_cache, ptr %compressed_certs_cache.addr, align 8
  store ptr %common_cert_sets, ptr %common_cert_sets.addr, align 8
  store ptr %client_common_set_hashes, ptr %client_common_set_hashes.addr, align 8
  store ptr %client_cached_cert_hashes, ptr %client_cached_cert_hashes.addr, align 8
  %frombool = zext i1 %sct_supported_by_client to i8
  store i8 %frombool, ptr %sct_supported_by_client.addr, align 1
  %frombool1 = zext i1 %ok to i8
  store i8 %frombool1, ptr %ok.addr, align 1
  store ptr %chain, ptr %chain.addr, align 8
  store ptr %signature, ptr %signature.addr, align 8
  store ptr %leaf_cert_sct, ptr %leaf_cert_sct.addr, align 8
  store ptr %details, ptr %details.indirect_addr, align 8
  store ptr %message, ptr %message.indirect_addr, align 8
  store ptr %cb, ptr %cb.indirect_addr, align 8
  %this2 = load ptr, ptr %this.addr, align 8
  %0 = load i8, ptr %ok.addr, align 1
  %tobool = trunc i8 %0 to i1
  br i1 %tobool, label %if.end, label %if.then

if.then:                                          ; preds = %entry
  %call = call noundef ptr @_ZNKSt10unique_ptrIN3net44BuildServerConfigUpdateMessageResultCallbackESt14default_deleteIS1_EEptEv(ptr noundef nonnull align 8 dereferenceable(8) %cb) #14
  %vtable = load ptr, ptr %call, align 8
  %vfn = getelementptr inbounds ptr, ptr %vtable, i64 2
  %1 = load ptr, ptr %vfn, align 8
  call void %1(ptr noundef nonnull align 8 dereferenceable(8) %call, i1 noundef zeroext false, ptr noundef nonnull align 8 dereferenceable(72) %message)
  br label %return

if.end:                                           ; preds = %entry
  %2 = load ptr, ptr %compressed_certs_cache.addr, align 8
  %3 = load ptr, ptr %chain.addr, align 8
  %4 = load ptr, ptr %client_common_set_hashes.addr, align 8
  %5 = load ptr, ptr %client_cached_cert_hashes.addr, align 8
  %6 = load ptr, ptr %common_cert_sets.addr, align 8
  call void @_ZN3net22QuicCryptoServerConfig13CompressChainEPNS_24QuicCompressedCertsCacheERK13scoped_refptrINS_11ProofSource5ChainEERKNSt7__cxx1112basic_stringIcSt11char_traitsIcESaIcEEESG_PKNS_14CommonCertSetsE(ptr sret(%"class.std::__cxx11::basic_string") align 8 %compressed, ptr noundef %2, ptr noundef nonnull align 8 dereferenceable(8) %3, ptr noundef nonnull align 8 dereferenceable(32) %4, ptr noundef nonnull align 8 dereferenceable(32) %5, ptr noundef %6)
  invoke void @_ZN4base16BasicStringPieceINSt7__cxx1112basic_stringIcSt11char_traitsIcESaIcEEEEC1ERKS6_(ptr noundef nonnull align 8 dereferenceable(16) %agg.tmp, ptr noundef nonnull align 8 dereferenceable(32) %compressed)
          to label %invoke.cont unwind label %lpad

invoke.cont:                                      ; preds = %if.end
  %7 = getelementptr inbounds { ptr, i64 }, ptr %agg.tmp, i32 0, i32 0
  %8 = load ptr, ptr %7, align 8
  %9 = getelementptr inbounds { ptr, i64 }, ptr %agg.tmp, i32 0, i32 1
  %10 = load i64, ptr %9, align 8
  invoke void @_ZN3net22CryptoHandshakeMessage14SetStringPieceEjN4base16BasicStringPieceINSt7__cxx1112basic_stringIcSt11char_traitsIcESaIcEEEEE(ptr noundef nonnull align 8 dereferenceable(72) %message, i32 noundef -11251133, ptr %8, i64 %10)
          to label %invoke.cont3 unwind label %lpad

invoke.cont3:                                     ; preds = %invoke.cont
  %11 = load ptr, ptr %signature.addr, align 8
  invoke void @_ZN4base16BasicStringPieceINSt7__cxx1112basic_stringIcSt11char_traitsIcESaIcEEEEC1ERKS6_(ptr noundef nonnull align 8 dereferenceable(16) %agg.tmp4, ptr noundef nonnull align 8 dereferenceable(32) %11)
          to label %invoke.cont5 unwind label %lpad

invoke.cont5:                                     ; preds = %invoke.cont3
  %12 = getelementptr inbounds { ptr, i64 }, ptr %agg.tmp4, i32 0, i32 0
  %13 = load ptr, ptr %12, align 8
  %14 = getelementptr inbounds { ptr, i64 }, ptr %agg.tmp4, i32 0, i32 1
  %15 = load i64, ptr %14, align 8
  invoke void @_ZN3net22CryptoHandshakeMessage14SetStringPieceEjN4base16BasicStringPieceINSt7__cxx1112basic_stringIcSt11char_traitsIcESaIcEEEEE(ptr noundef nonnull align 8 dereferenceable(72) %message, i32 noundef 1179603536, ptr %13, i64 %15)
          to label %invoke.cont6 unwind label %lpad

invoke.cont6:                                     ; preds = %invoke.cont5
  %16 = load i8, ptr %sct_supported_by_client.addr, align 1
  %tobool7 = trunc i8 %16 to i1
  br i1 %tobool7, label %land.lhs.true, label %if.end16

land.lhs.true:                                    ; preds = %invoke.cont6
  %enable_serving_sct_ = getelementptr inbounds %"class.net::QuicCryptoServerConfig", ptr %this2, i32 0, i32 25
  %17 = load i8, ptr %enable_serving_sct_, align 4
  %tobool8 = trunc i8 %17 to i1
  br i1 %tobool8, label %if.then9, label %if.end16

if.then9:                                         ; preds = %land.lhs.true
  %18 = load ptr, ptr %leaf_cert_sct.addr, align 8
  %call10 = call noundef zeroext i1 @_ZNKSt7__cxx1112basic_stringIcSt11char_traitsIcESaIcEE5emptyEv(ptr noundef nonnull align 8 dereferenceable(32) %18) #14
  br i1 %call10, label %if.then11, label %if.else

if.then11:                                        ; preds = %if.then9
  br label %if.end15

lpad:                                             ; preds = %if.end16, %invoke.cont13, %if.else, %invoke.cont5, %invoke.cont3, %invoke.cont, %if.end
  %19 = landingpad { ptr, i32 }
          cleanup
  %20 = extractvalue { ptr, i32 } %19, 0
  store ptr %20, ptr %exn.slot, align 8
  %21 = extractvalue { ptr, i32 } %19, 1
  store i32 %21, ptr %ehselector.slot, align 4
  call void @_ZNSt7__cxx1112basic_stringIcSt11char_traitsIcESaIcEED1Ev(ptr noundef nonnull align 8 dereferenceable(32) %compressed) #14
  br label %eh.resume

if.else:                                          ; preds = %if.then9
  %22 = load ptr, ptr %leaf_cert_sct.addr, align 8
  invoke void @_ZN4base16BasicStringPieceINSt7__cxx1112basic_stringIcSt11char_traitsIcESaIcEEEEC1ERKS6_(ptr noundef nonnull align 8 dereferenceable(16) %agg.tmp12, ptr noundef nonnull align 8 dereferenceable(32) %22)
          to label %invoke.cont13 unwind label %lpad

invoke.cont13:                                    ; preds = %if.else
  %23 = getelementptr inbounds { ptr, i64 }, ptr %agg.tmp12, i32 0, i32 0
  %24 = load ptr, ptr %23, align 8
  %25 = getelementptr inbounds { ptr, i64 }, ptr %agg.tmp12, i32 0, i32 1
  %26 = load i64, ptr %25, align 8
  invoke void @_ZN3net22CryptoHandshakeMessage14SetStringPieceEjN4base16BasicStringPieceINSt7__cxx1112basic_stringIcSt11char_traitsIcESaIcEEEEE(ptr noundef nonnull align 8 dereferenceable(72) %message, i32 noundef 1413698371, ptr %24, i64 %26)
          to label %invoke.cont14 unwind label %lpad

invoke.cont14:                                    ; preds = %invoke.cont13
  br label %if.end15

if.end15:                                         ; preds = %invoke.cont14, %if.then11
  br label %if.end16

if.end16:                                         ; preds = %if.end15, %land.lhs.true, %invoke.cont6
  %call17 = call noundef ptr @_ZNKSt10unique_ptrIN3net44BuildServerConfigUpdateMessageResultCallbackESt14default_deleteIS1_EEptEv(ptr noundef nonnull align 8 dereferenceable(8) %cb) #14
  %vtable18 = load ptr, ptr %call17, align 8
  %vfn19 = getelementptr inbounds ptr, ptr %vtable18, i64 2
  %27 = load ptr, ptr %vfn19, align 8
  invoke void %27(ptr noundef nonnull align 8 dereferenceable(8) %call17, i1 noundef zeroext true, ptr noundef nonnull align 8 dereferenceable(72) %message)
          to label %invoke.cont20 unwind label %lpad

invoke.cont20:                                    ; preds = %if.end16
  call void @_ZNSt7__cxx1112basic_stringIcSt11char_traitsIcESaIcEED1Ev(ptr noundef nonnull align 8 dereferenceable(32) %compressed) #14
  br label %return

return:                                           ; preds = %invoke.cont20, %if.then
  ret void

eh.resume:                                        ; preds = %lpad
  %exn = load ptr, ptr %exn.slot, align 8
  %sel = load i32, ptr %ehselector.slot, align 4
  %lpad.val = insertvalue { ptr, i32 } poison, ptr %exn, 0
  %lpad.val21 = insertvalue { ptr, i32 } %lpad.val, i32 %sel, 1
  resume { ptr, i32 } %lpad.val21
}