; Function Attrs: mustprogress uwtable
define dso_local void @_ZNK3net22QuicCryptoServerConfig36FinishBuildServerConfigUpdateMessageENS_11QuicVersionEPNS_24QuicCompressedCertsCacheEPKNS_14CommonCertSetsERKNSt7__cxx1112basic_stringIcSt11char_traitsIcESaIcEEESE_bbRK13scoped_refptrINS_11ProofSource5ChainEESE_SE_St10unique_ptrINSG_7DetailsESt14default_deleteISM_EENS_22CryptoHandshakeMessageESL_INS_44BuildServerConfigUpdateMessageResultCallbackESN_ISR_EE(ptr nocapture noundef nonnull readonly align 8 dereferenceable(405) %this, i32 %version, ptr noundef %compressed_certs_cache, ptr noundef %common_cert_sets, ptr noundef nonnull align 8 dereferenceable(32) %client_common_set_hashes, ptr noundef nonnull align 8 dereferenceable(32) %client_cached_cert_hashes, i1 noundef zeroext %sct_supported_by_client, i1 noundef zeroext %ok, ptr noundef nonnull align 8 dereferenceable(8) %chain, ptr noundef nonnull align 8 dereferenceable(32) %signature, ptr noundef nonnull align 8 dereferenceable(32) %leaf_cert_sct, ptr nocapture readnone %details, ptr noundef %message, ptr nocapture noundef readonly %cb) local_unnamed_addr #0 align 2 personality ptr @__gxx_personality_v0 {
entry:
  %compressed = alloca %"class.std::__cxx11::basic_string", align 8
  %agg.tmp = alloca %"class.base::BasicStringPiece", align 8
  %agg.tmp4 = alloca %"class.base::BasicStringPiece", align 8
  %agg.tmp12 = alloca %"class.base::BasicStringPiece", align 8
  br i1 %ok, label %if.end, label %if.then

if.then:                                          ; preds = %entry
  %0 = load ptr, ptr %cb, align 8
  %vtable = load ptr, ptr %0, align 8
  %vfn = getelementptr inbounds i8, ptr %vtable, i64 16
  %1 = load ptr, ptr %vfn, align 8
  tail call void %1(ptr noundef nonnull align 8 dereferenceable(8) %0, i1 noundef zeroext false, ptr noundef nonnull align 8 dereferenceable(72) %message)
  br label %return

if.end:                                           ; preds = %entry
  call void @_ZN3net22QuicCryptoServerConfig13CompressChainEPNS_24QuicCompressedCertsCacheERK13scoped_refptrINS_11ProofSource5ChainEERKNSt7__cxx1112basic_stringIcSt11char_traitsIcESaIcEEESG_PKNS_14CommonCertSetsE(ptr nonnull sret(%"class.std::__cxx11::basic_string") align 8 %compressed, ptr noundef %compressed_certs_cache, ptr noundef nonnull align 8 dereferenceable(8) %chain, ptr noundef nonnull align 8 dereferenceable(32) %client_common_set_hashes, ptr noundef nonnull align 8 dereferenceable(32) %client_cached_cert_hashes, ptr noundef %common_cert_sets)
  invoke void @_ZN4base16BasicStringPieceINSt7__cxx1112basic_stringIcSt11char_traitsIcESaIcEEEEC1ERKS6_(ptr noundef nonnull align 8 dereferenceable(16) %agg.tmp, ptr noundef nonnull align 8 dereferenceable(32) %compressed)
          to label %invoke.cont unwind label %lpad

invoke.cont:                                      ; preds = %if.end
  %2 = load ptr, ptr %agg.tmp, align 8
  %3 = getelementptr inbounds i8, ptr %agg.tmp, i64 8
  %4 = load i64, ptr %3, align 8
  invoke void @_ZN3net22CryptoHandshakeMessage14SetStringPieceEjN4base16BasicStringPieceINSt7__cxx1112basic_stringIcSt11char_traitsIcESaIcEEEEE(ptr noundef nonnull align 8 dereferenceable(72) %message, i32 noundef -11251133, ptr %2, i64 %4)
          to label %invoke.cont3 unwind label %lpad

invoke.cont3:                                     ; preds = %invoke.cont
  invoke void @_ZN4base16BasicStringPieceINSt7__cxx1112basic_stringIcSt11char_traitsIcESaIcEEEEC1ERKS6_(ptr noundef nonnull align 8 dereferenceable(16) %agg.tmp4, ptr noundef nonnull align 8 dereferenceable(32) %signature)
          to label %invoke.cont5 unwind label %lpad

invoke.cont5:                                     ; preds = %invoke.cont3
  %5 = load ptr, ptr %agg.tmp4, align 8
  %6 = getelementptr inbounds i8, ptr %agg.tmp4, i64 8
  %7 = load i64, ptr %6, align 8
  invoke void @_ZN3net22CryptoHandshakeMessage14SetStringPieceEjN4base16BasicStringPieceINSt7__cxx1112basic_stringIcSt11char_traitsIcESaIcEEEEE(ptr noundef nonnull align 8 dereferenceable(72) %message, i32 noundef 1179603536, ptr %5, i64 %7)
          to label %invoke.cont6 unwind label %lpad

invoke.cont6:                                     ; preds = %invoke.cont5
  br i1 %sct_supported_by_client, label %land.lhs.true, label %if.end16

land.lhs.true:                                    ; preds = %invoke.cont6
  %enable_serving_sct_ = getelementptr inbounds i8, ptr %this, i64 404
  %8 = load i8, ptr %enable_serving_sct_, align 4
  %9 = and i8 %8, 1
  %tobool8.not = icmp eq i8 %9, 0
  br i1 %tobool8.not, label %if.end16, label %if.then9

if.then9:                                         ; preds = %land.lhs.true
  %call10 = call noundef zeroext i1 @_ZNKSt7__cxx1112basic_stringIcSt11char_traitsIcESaIcEE5emptyEv(ptr noundef nonnull align 8 dereferenceable(32) %leaf_cert_sct) #20
  br i1 %call10, label %if.end16, label %if.else

lpad:                                             ; preds = %if.end16, %invoke.cont13, %if.else, %invoke.cont5, %invoke.cont3, %invoke.cont, %if.end
  %10 = landingpad { ptr, i32 }
          cleanup
  call void @_ZNSt7__cxx1112basic_stringIcSt11char_traitsIcESaIcEED1Ev(ptr noundef nonnull align 8 dereferenceable(32) %compressed) #20
  resume { ptr, i32 } %10

if.else:                                          ; preds = %if.then9
  invoke void @_ZN4base16BasicStringPieceINSt7__cxx1112basic_stringIcSt11char_traitsIcESaIcEEEEC1ERKS6_(ptr noundef nonnull align 8 dereferenceable(16) %agg.tmp12, ptr noundef nonnull align 8 dereferenceable(32) %leaf_cert_sct)
          to label %invoke.cont13 unwind label %lpad

invoke.cont13:                                    ; preds = %if.else
  %11 = load ptr, ptr %agg.tmp12, align 8
  %12 = getelementptr inbounds i8, ptr %agg.tmp12, i64 8
  %13 = load i64, ptr %12, align 8
  invoke void @_ZN3net22CryptoHandshakeMessage14SetStringPieceEjN4base16BasicStringPieceINSt7__cxx1112basic_stringIcSt11char_traitsIcESaIcEEEEE(ptr noundef nonnull align 8 dereferenceable(72) %message, i32 noundef 1413698371, ptr %11, i64 %13)
          to label %if.end16 unwind label %lpad

if.end16:                                         ; preds = %if.then9, %invoke.cont13, %land.lhs.true, %invoke.cont6
  %14 = load ptr, ptr %cb, align 8
  %vtable18 = load ptr, ptr %14, align 8
  %vfn19 = getelementptr inbounds i8, ptr %vtable18, i64 16
  %15 = load ptr, ptr %vfn19, align 8
  invoke void %15(ptr noundef nonnull align 8 dereferenceable(8) %14, i1 noundef zeroext true, ptr noundef nonnull align 8 dereferenceable(72) %message)
          to label %invoke.cont20 unwind label %lpad

invoke.cont20:                                    ; preds = %if.end16
  call void @_ZNSt7__cxx1112basic_stringIcSt11char_traitsIcESaIcEED1Ev(ptr noundef nonnull align 8 dereferenceable(32) %compressed) #20
  br label %return

return:                                           ; preds = %invoke.cont20, %if.then
  ret void
}